target datalayout = "e-m:e-p270:32:32-p271:32:32-p272:64:64-i64:64-i128:128-f80:128-n8:16:32:64-S128"
target triple = "x86_64-pc-linux-gnu"

@dlamc1_.first = internal global i32 1, align 4
@dlamc1_.lrnd = internal global i32 0, align 4
@dlamc1_.lbeta = internal global i32 0, align 4
@dlamc1_.lieee1 = internal global i32 0, align 4
@dlamc1_.lt = internal global i32 0, align 4

; Function Attrs: nounwind uwtable
define double @dlamc3_(ptr noundef %0, ptr noundef %1) #0 {
  %3 = alloca ptr, align 8
  %4 = alloca ptr, align 8
  %5 = alloca double, align 8
  store ptr %0, ptr %3, align 8, !tbaa !14
  store ptr %1, ptr %4, align 8, !tbaa !14
  call void @llvm.lifetime.start.p0(i64 8, ptr %5) #3
  %6 = load ptr, ptr %3, align 8, !tbaa !14
  %7 = load double, ptr %6, align 8, !tbaa !10
  %8 = load ptr, ptr %4, align 8, !tbaa !14
  %9 = load double, ptr %8, align 8, !tbaa !10
  %10 = fadd double %7, %9
  store double %10, ptr %5, align 8, !tbaa !10
  %11 = load double, ptr %5, align 8, !tbaa !10
  call void @llvm.lifetime.end.p0(i64 8, ptr %5) #3
  ret double %11
}

; Function Attrs: nounwind uwtable
define i32 @dlamc1_(ptr noundef %0, ptr noundef %1, ptr noundef %2, ptr noundef %3) #0 {
  %5 = alloca ptr, align 8
  %6 = alloca ptr, align 8
  %7 = alloca ptr, align 8
  %8 = alloca ptr, align 8
  %9 = alloca double, align 8
  %10 = alloca double, align 8
  %11 = alloca double, align 8
  %12 = alloca double, align 8
  %13 = alloca double, align 8
  %14 = alloca double, align 8
  %15 = alloca double, align 8
  %16 = alloca double, align 8
  %17 = alloca double, align 8
  %18 = alloca double, align 8
  %19 = alloca double, align 8
  store ptr %0, ptr %5, align 8, !tbaa !12
  store ptr %1, ptr %6, align 8, !tbaa !12
  store ptr %2, ptr %7, align 8, !tbaa !12
  store ptr %3, ptr %8, align 8, !tbaa !12
  call void @llvm.lifetime.start.p0(i64 8, ptr %9) #3
  call void @llvm.lifetime.start.p0(i64 8, ptr %10) #3
  call void @llvm.lifetime.start.p0(i64 8, ptr %11) #3
  call void @llvm.lifetime.start.p0(i64 8, ptr %12) #3
  call void @llvm.lifetime.start.p0(i64 8, ptr %13) #3
  call void @llvm.lifetime.start.p0(i64 8, ptr %14) #3
  call void @llvm.lifetime.start.p0(i64 8, ptr %15) #3
  call void @llvm.lifetime.start.p0(i64 8, ptr %16) #3
  call void @llvm.lifetime.start.p0(i64 8, ptr %17) #3
  call void @llvm.lifetime.start.p0(i64 8, ptr %18) #3
  call void @llvm.lifetime.start.p0(i64 8, ptr %19) #3
  %20 = load i32, ptr @dlamc1_.first, align 4, !tbaa !8
  %21 = icmp ne i32 %20, 0
  br i1 %21, label %22, label %119

22:                                               ; preds = %4
  store double 1.000000e+00, ptr %18, align 8, !tbaa !10
  store double 1.000000e+00, ptr %11, align 8, !tbaa !10
  store double 1.000000e+00, ptr %13, align 8, !tbaa !10
  br label %23

23:                                               ; preds = %27, %22
  %24 = load double, ptr %13, align 8, !tbaa !10
  %25 = load double, ptr %18, align 8, !tbaa !10
  %26 = fcmp oeq double %24, %25
  br i1 %26, label %27, label %34

27:                                               ; preds = %23
  %28 = load double, ptr %11, align 8, !tbaa !10
  %29 = fmul double %28, 2.000000e+00
  store double %29, ptr %11, align 8, !tbaa !10
  %30 = call double @dlamc3_(ptr noundef %11, ptr noundef %18)
  store double %30, ptr %13, align 8, !tbaa !10
  %31 = load double, ptr %11, align 8, !tbaa !10
  %32 = fneg double %31
  store double %32, ptr %9, align 8, !tbaa !10
  %33 = call double @dlamc3_(ptr noundef %13, ptr noundef %9)
  store double %33, ptr %13, align 8, !tbaa !10
  br label %23

34:                                               ; preds = %23
  store double 1.000000e+00, ptr %12, align 8, !tbaa !10
  %35 = call double @dlamc3_(ptr noundef %11, ptr noundef %12)
  store double %35, ptr %13, align 8, !tbaa !10
  br label %36

36:                                               ; preds = %40, %34
  %37 = load double, ptr %13, align 8, !tbaa !10
  %38 = load double, ptr %11, align 8, !tbaa !10
  %39 = fcmp oeq double %37, %38
  br i1 %39, label %40, label %44

40:                                               ; preds = %36
  %41 = load double, ptr %12, align 8, !tbaa !10
  %42 = fmul double %41, 2.000000e+00
  store double %42, ptr %12, align 8, !tbaa !10
  %43 = call double @dlamc3_(ptr noundef %11, ptr noundef %12)
  store double %43, ptr %13, align 8, !tbaa !10
  br label %36

44:                                               ; preds = %36
  %45 = load double, ptr %18, align 8, !tbaa !10
  %46 = fdiv double %45, 4.000000e+00
  store double %46, ptr %19, align 8, !tbaa !10
  %47 = load double, ptr %13, align 8, !tbaa !10
  store double %47, ptr %15, align 8, !tbaa !10
  %48 = load double, ptr %11, align 8, !tbaa !10
  %49 = fneg double %48
  store double %49, ptr %9, align 8, !tbaa !10
  %50 = call double @dlamc3_(ptr noundef %13, ptr noundef %9)
  store double %50, ptr %13, align 8, !tbaa !10
  %51 = load double, ptr %13, align 8, !tbaa !10
  %52 = load double, ptr %19, align 8, !tbaa !10
  %53 = fadd double %51, %52
  %54 = fptosi double %53 to i32
  store i32 %54, ptr @dlamc1_.lbeta, align 4, !tbaa !8
  %55 = load i32, ptr @dlamc1_.lbeta, align 4, !tbaa !8
  %56 = sitofp i32 %55 to double
  store double %56, ptr %12, align 8, !tbaa !10
  %57 = load double, ptr %12, align 8, !tbaa !10
  %58 = fdiv double %57, 2.000000e+00
  store double %58, ptr %9, align 8, !tbaa !10
  %59 = load double, ptr %12, align 8, !tbaa !10
  %60 = fneg double %59
  %61 = fdiv double %60, 1.000000e+02
  store double %61, ptr %10, align 8, !tbaa !10
  %62 = call double @dlamc3_(ptr noundef %9, ptr noundef %10)
  store double %62, ptr %14, align 8, !tbaa !10
  %63 = call double @dlamc3_(ptr noundef %14, ptr noundef %11)
  store double %63, ptr %13, align 8, !tbaa !10
  %64 = load double, ptr %13, align 8, !tbaa !10
  %65 = load double, ptr %11, align 8, !tbaa !10
  %66 = fcmp oeq double %64, %65
  br i1 %66, label %67, label %68

67:                                               ; preds = %44
  store i32 1, ptr @dlamc1_.lrnd, align 4, !tbaa !8
  br label %69

68:                                               ; preds = %44
  store i32 0, ptr @dlamc1_.lrnd, align 4, !tbaa !8
  br label %69

69:                                               ; preds = %68, %67
  %70 = load double, ptr %12, align 8, !tbaa !10
  %71 = fdiv double %70, 2.000000e+00
  store double %71, ptr %9, align 8, !tbaa !10
  %72 = load double, ptr %12, align 8, !tbaa !10
  %73 = fdiv double %72, 1.000000e+02
  store double %73, ptr %10, align 8, !tbaa !10
  %74 = call double @dlamc3_(ptr noundef %9, ptr noundef %10)
  store double %74, ptr %14, align 8, !tbaa !10
  %75 = call double @dlamc3_(ptr noundef %14, ptr noundef %11)
  store double %75, ptr %13, align 8, !tbaa !10
  %76 = load i32, ptr @dlamc1_.lrnd, align 4, !tbaa !8
  %77 = icmp ne i32 %76, 0
  br i1 %77, label %78, label %83

78:                                               ; preds = %69
  %79 = load double, ptr %13, align 8, !tbaa !10
  %80 = load double, ptr %11, align 8, !tbaa !10
  %81 = fcmp oeq double %79, %80
  br i1 %81, label %82, label %83

82:                                               ; preds = %78
  store i32 0, ptr @dlamc1_.lrnd, align 4, !tbaa !8
  br label %83

83:                                               ; preds = %82, %78, %69
  %84 = load double, ptr %12, align 8, !tbaa !10
  %85 = fdiv double %84, 2.000000e+00
  store double %85, ptr %9, align 8, !tbaa !10
  %86 = call double @dlamc3_(ptr noundef %9, ptr noundef %11)
  store double %86, ptr %16, align 8, !tbaa !10
  %87 = load double, ptr %12, align 8, !tbaa !10
  %88 = fdiv double %87, 2.000000e+00
  store double %88, ptr %9, align 8, !tbaa !10
  %89 = call double @dlamc3_(ptr noundef %9, ptr noundef %15)
  store double %89, ptr %17, align 8, !tbaa !10
  %90 = load double, ptr %16, align 8, !tbaa !10
  %91 = load double, ptr %11, align 8, !tbaa !10
  %92 = fcmp oeq double %90, %91
  br i1 %92, label %93, label %100

93:                                               ; preds = %83
  %94 = load double, ptr %17, align 8, !tbaa !10
  %95 = load double, ptr %15, align 8, !tbaa !10
  %96 = fcmp ogt double %94, %95
  br i1 %96, label %97, label %100

97:                                               ; preds = %93
  %98 = load i32, ptr @dlamc1_.lrnd, align 4, !tbaa !8
  %99 = icmp ne i32 %98, 0
  br label %100

100:                                              ; preds = %97, %93, %83
  %101 = phi i1 [ false, %93 ], [ false, %83 ], [ %99, %97 ]
  %102 = zext i1 %101 to i32
  store i32 %102, ptr @dlamc1_.lieee1, align 4, !tbaa !8
  store i32 0, ptr @dlamc1_.lt, align 4, !tbaa !8
  store double 1.000000e+00, ptr %11, align 8, !tbaa !10
  store double 1.000000e+00, ptr %13, align 8, !tbaa !10
  br label %103

103:                                              ; preds = %107, %100
  %104 = load double, ptr %13, align 8, !tbaa !10
  %105 = load double, ptr %18, align 8, !tbaa !10
  %106 = fcmp oeq double %104, %105
  br i1 %106, label %107, label %118

107:                                              ; preds = %103
  %108 = load i32, ptr @dlamc1_.lt, align 4, !tbaa !8
  %109 = add nsw i32 %108, 1
  store i32 %109, ptr @dlamc1_.lt, align 4, !tbaa !8
  %110 = load i32, ptr @dlamc1_.lbeta, align 4, !tbaa !8
  %111 = sitofp i32 %110 to double
  %112 = load double, ptr %11, align 8, !tbaa !10
  %113 = fmul double %112, %111
  store double %113, ptr %11, align 8, !tbaa !10
  %114 = call double @dlamc3_(ptr noundef %11, ptr noundef %18)
  store double %114, ptr %13, align 8, !tbaa !10
  %115 = load double, ptr %11, align 8, !tbaa !10
  %116 = fneg double %115
  store double %116, ptr %9, align 8, !tbaa !10
  %117 = call double @dlamc3_(ptr noundef %13, ptr noundef %9)
  store double %117, ptr %13, align 8, !tbaa !10
  br label %103

118:                                              ; preds = %103
  br label %119

119:                                              ; preds = %118, %4
  %120 = load i32, ptr @dlamc1_.lbeta, align 4, !tbaa !8
  %121 = load ptr, ptr %5, align 8, !tbaa !12
  store i32 %120, ptr %121, align 4, !tbaa !8
  %122 = load i32, ptr @dlamc1_.lt, align 4, !tbaa !8
  %123 = load ptr, ptr %6, align 8, !tbaa !12
  store i32 %122, ptr %123, align 4, !tbaa !8
  %124 = load i32, ptr @dlamc1_.lrnd, align 4, !tbaa !8
  %125 = load ptr, ptr %7, align 8, !tbaa !12
  store i32 %124, ptr %125, align 4, !tbaa !8
  %126 = load i32, ptr @dlamc1_.lieee1, align 4, !tbaa !8
  %127 = load ptr, ptr %8, align 8, !tbaa !12
  store i32 %126, ptr %127, align 4, !tbaa !8
  store i32 0, ptr @dlamc1_.first, align 4, !tbaa !8
  call void @llvm.lifetime.end.p0(i64 8, ptr %19) #3
  call void @llvm.lifetime.end.p0(i64 8, ptr %18) #3
  call void @llvm.lifetime.end.p0(i64 8, ptr %17) #3
  call void @llvm.lifetime.end.p0(i64 8, ptr %16) #3
  call void @llvm.lifetime.end.p0(i64 8, ptr %15) #3
  call void @llvm.lifetime.end.p0(i64 8, ptr %14) #3
  call void @llvm.lifetime.end.p0(i64 8, ptr %13) #3
  call void @llvm.lifetime.end.p0(i64 8, ptr %12) #3
  call void @llvm.lifetime.end.p0(i64 8, ptr %11) #3
  call void @llvm.lifetime.end.p0(i64 8, ptr %10) #3
  call void @llvm.lifetime.end.p0(i64 8, ptr %9) #3
  ret i32 0
}