; Function Attrs: nofree norecurse nosync nounwind memory(readwrite, argmem: write, inaccessiblemem: none) uwtable
define noundef i32 @dlamc1_(ptr noundef writeonly captures(none) %0, ptr noundef writeonly captures(none) %1, ptr noundef writeonly captures(none) %2, ptr noundef writeonly captures(none) %3) local_unnamed_addr #2 {
  %.b = load i1, ptr @dlamc1_.first, align 4
  br i1 %.b, label %._crit_edge64, label %.preheader

._crit_edge64:                                    ; preds = %4
  %.pre = load i32, ptr @dlamc1_.lbeta, align 4, !tbaa !3
  %.pre65 = load i32, ptr @dlamc1_.lt, align 4, !tbaa !3
  %.b7.pre = load i1, ptr @dlamc1_.lrnd, align 4
  %.pre67 = load i32, ptr @dlamc1_.lieee1, align 4, !tbaa !3
  br label %37

.preheader:                                       ; preds = %4, %.preheader
  %.059 = phi double [ %5, %.preheader ], [ 1.000000e+00, %4 ]
  %5 = fmul double %.059, 2.000000e+00
  %6 = fadd double %5, 1.000000e+00
  %7 = fsub double %6, %5
  %8 = fcmp oeq double %7, 1.000000e+00
  br i1 %8, label %.preheader, label %9

9:                                                ; preds = %.preheader
  %10 = fcmp oeq double %6, %5
  br i1 %10, label %.lr.ph, label %._crit_edge

.lr.ph:                                           ; preds = %9, %.lr.ph
  %.05860 = phi double [ %11, %.lr.ph ], [ 1.000000e+00, %9 ]
  %11 = fmul double %.05860, 2.000000e+00
  %12 = fadd double %5, %11
  %13 = fcmp oeq double %12, %5
  br i1 %13, label %.lr.ph, label %._crit_edge.loopexit

._crit_edge.loopexit:                             ; preds = %.lr.ph
  %.pre68 = fsub double %12, %5
  br label %._crit_edge

._crit_edge:                                      ; preds = %._crit_edge.loopexit, %9
  %.pre-phi = phi double [ %.pre68, %._crit_edge.loopexit ], [ %7, %9 ]
  %storemerge10.lcssa = phi double [ %12, %._crit_edge.loopexit ], [ %6, %9 ]
  %14 = fadd double %.pre-phi, 2.500000e-01
  %15 = fptosi double %14 to i32
  store i32 %15, ptr @dlamc1_.lbeta, align 4, !tbaa !3
  %16 = sitofp i32 %15 to double
  %17 = fmul double %16, 5.000000e-01
  %18 = fdiv double %16, 1.000000e+02
  %19 = fsub double %17, %18
  %20 = fadd double %5, %19
  %21 = fcmp oeq double %20, %5
  %22 = fadd double %17, %18
  %23 = fadd double %5, %22
  %24 = fcmp une double %23, %5
  %spec.store.select = and i1 %21, %24
  store i1 %spec.store.select, ptr @dlamc1_.lrnd, align 4
  %25 = fadd double %5, %17
  %26 = fadd double %storemerge10.lcssa, %17
  %27 = fcmp oeq double %25, %5
  %28 = fcmp ogt double %26, %storemerge10.lcssa
  %or.cond15 = and i1 %27, %28
  %narrow = and i1 %or.cond15, %spec.store.select
  %29 = zext i1 %narrow to i32
  store i32 %29, ptr @dlamc1_.lieee1, align 4, !tbaa !3
  br label %30

30:                                               ; preds = %._crit_edge, %30
  %.161 = phi double [ 1.000000e+00, %._crit_edge ], [ %33, %30 ]
  %31 = phi i32 [ 0, %._crit_edge ], [ %32, %30 ]
  %32 = add nuw nsw i32 %31, 1
  %33 = fmul double %.161, %16
  %34 = fadd double %33, 1.000000e+00
  %35 = fsub double %34, %33
  %36 = fcmp oeq double %35, 1.000000e+00
  br i1 %36, label %30, label %.loopexit

.loopexit:                                        ; preds = %30
  store i32 %32, ptr @dlamc1_.lt, align 4, !tbaa !3
  br label %37

37:                                               ; preds = %._crit_edge64, %.loopexit
  %38 = phi i32 [ %.pre67, %._crit_edge64 ], [ %29, %.loopexit ]
  %.b7 = phi i1 [ %.b7.pre, %._crit_edge64 ], [ %spec.store.select, %.loopexit ]
  %39 = phi i32 [ %.pre65, %._crit_edge64 ], [ %32, %.loopexit ]
  %40 = phi i32 [ %.pre, %._crit_edge64 ], [ %15, %.loopexit ]
  store i32 %40, ptr %0, align 4, !tbaa !3
  store i32 %39, ptr %1, align 4, !tbaa !3
  %41 = zext i1 %.b7 to i32
  store i32 %41, ptr %2, align 4, !tbaa !3
  store i32 %38, ptr %3, align 4, !tbaa !3
  store i1 true, ptr @dlamc1_.first, align 4
  ret i32 0
}